target datalayout = "e-m:e-p270:32:32-p271:32:32-p272:64:64-i64:64-i128:128-f80:128-n8:16:32:64-S128"
target triple = "x86_64-unknown-linux-gnu"

%struct.ctl_table = type { ptr, ptr, i32, i16, i32, ptr, ptr, ptr, ptr }

@.str = private unnamed_addr constant [9 x i8] c"dev/scsi\00", align 1
@scsi_table = internal global [1 x %struct.ctl_table] [%struct.ctl_table { ptr @.str.1, ptr @scsi_logging_level, i32 4, i16 420, i32 0, ptr @proc_dointvec, ptr null, ptr null, ptr null }], align 16
@scsi_table_header = internal unnamed_addr global ptr null, align 8
@.str.1 = private unnamed_addr constant [14 x i8] c"logging_level\00", align 1
@scsi_logging_level = external dso_local global i32, align 4

; Function Attrs: cold fn_ret_thunk_extern nounwind null_pointer_is_valid optsize
define dso_local i32 @scsi_init_sysctl() local_unnamed_addr #0 section ".init.text" align 16 {
  %1 = tail call ptr @register_sysctl_sz(ptr noundef nonnull @.str, ptr noundef nonnull @scsi_table, i64 noundef 1) #3
  store ptr %1, ptr @scsi_table_header, align 8
  %2 = icmp eq ptr %1, null
  %3 = select i1 %2, i32 -12, i32 0
  ret i32 %3
}

; Function Attrs: null_pointer_is_valid
declare dso_local ptr @register_sysctl_sz(ptr noundef, ptr noundef, i64 noundef) local_unnamed_addr #1

; Function Attrs: fn_ret_thunk_extern nounwind null_pointer_is_valid
define dso_local void @scsi_exit_sysctl() local_unnamed_addr #2 align 16 {
  %1 = load ptr, ptr @scsi_table_header, align 8
  tail call void @unregister_sysctl_table(ptr noundef %1) #3
  ret void
}

; Function Attrs: null_pointer_is_valid
declare dso_local void @unregister_sysctl_table(ptr noundef) local_unnamed_addr #1

; Function Attrs: null_pointer_is_valid
declare dso_local i32 @proc_dointvec(ptr noundef, i32 noundef, ptr noundef, ptr noundef, ptr noundef) #1


!llvm.module.flags = !{!0, !1, !2, !3, !4}

!0 = !{i32 1, !"wchar_size", i32 2}
!1 = !{i32 8, !"cf-protection-branch", i32 1}
!2 = !{i32 4, !"function_return_thunk_extern", i32 1}
!3 = !{i32 4, !"indirect_branch_cs_prefix", i32 1}
!4 = !{i32 4, !"SkipRaxSetup", i32 1}
